; Function Attrs: null_pointer_is_valid sspstrong uwtable
define internal void @cfgparam_01(ptr noundef %0, ptr readnone captures(none) %1, ptr noundef %2) #0 {
  %4 = load i32, ptr @hf_ipmi_se_cp01_alert_startup, align 4
  %5 = tail call ptr @proto_tree_add_item(ptr noundef %2, i32 noundef %4, ptr noundef %0, i32 noundef 0, i32 noundef 1, i32 noundef -2147483648)
  %6 = load i32, ptr @hf_ipmi_se_cp01_startup, align 4
  %7 = tail call ptr @proto_tree_add_item(ptr noundef %2, i32 noundef %6, ptr noundef %0, i32 noundef 0, i32 noundef 1, i32 noundef -2147483648)
  %8 = load i32, ptr @hf_ipmi_se_cp01_event_msg, align 4
  %9 = tail call ptr @proto_tree_add_item(ptr noundef %2, i32 noundef %8, ptr noundef %0, i32 noundef 0, i32 noundef 1, i32 noundef -2147483648)
  %10 = load i32, ptr @hf_ipmi_se_cp01_pef, align 4
  %11 = tail call ptr @proto_tree_add_item(ptr noundef %2, i32 noundef %10, ptr noundef %0, i32 noundef 0, i32 noundef 1, i32 noundef -2147483648)
  ret void
}